target datalayout = "e-m:e-p270:32:32-p271:32:32-p272:64:64-i64:64-i128:128-f80:128-n8:16:32:64-S128"
target triple = "x86_64-pc-linux-gnu"

%struct.dtTileCacheLayer = type { ptr, i8, ptr, ptr, ptr, ptr }
%struct.dtTileCacheLayerHeader = type { i32, i32, i32, i32, i32, [3 x float], [3 x float], i16, i16, i8, i8, i8, i8, i8, i8 }

; Function Attrs: mustprogress nounwind uwtable
define linkonce_odr noundef i32 @_Z6duRGBAiiii(i32 noundef %0, i32 noundef %1, i32 noundef %2, i32 noundef %3) #2 comdat {
  %5 = alloca i32, align 4
  %6 = alloca i32, align 4
  %7 = alloca i32, align 4
  %8 = alloca i32, align 4
  store i32 %0, ptr %5, align 4
  store i32 %1, ptr %6, align 4
  store i32 %2, ptr %7, align 4
  store i32 %3, ptr %8, align 4
  %9 = load i32, ptr %5, align 4
  %10 = load i32, ptr %6, align 4
  %11 = shl i32 %10, 8
  %12 = or i32 %9, %11
  %13 = load i32, ptr %7, align 4
  %14 = shl i32 %13, 16
  %15 = or i32 %12, %14
  %16 = load i32, ptr %8, align 4
  %17 = shl i32 %16, 24
  %18 = or i32 %15, %17
  ret i32 %18
}

; Function Attrs: mustprogress nounwind uwtable
define linkonce_odr noundef i32 @_Z9duLerpColjjj(i32 noundef %0, i32 noundef %1, i32 noundef %2) #2 comdat {
  %4 = alloca i32, align 4
  %5 = alloca i32, align 4
  %6 = alloca i32, align 4
  %7 = alloca i32, align 4
  %8 = alloca i32, align 4
  %9 = alloca i32, align 4
  %10 = alloca i32, align 4
  %11 = alloca i32, align 4
  %12 = alloca i32, align 4
  %13 = alloca i32, align 4
  %14 = alloca i32, align 4
  %15 = alloca i32, align 4
  %16 = alloca i32, align 4
  %17 = alloca i32, align 4
  %18 = alloca i32, align 4
  store i32 %0, ptr %4, align 4
  store i32 %1, ptr %5, align 4
  store i32 %2, ptr %6, align 4
  %19 = load i32, ptr %4, align 4
  %20 = and i32 %19, 255
  store i32 %20, ptr %7, align 4
  %21 = load i32, ptr %4, align 4
  %22 = lshr i32 %21, 8
  %23 = and i32 %22, 255
  store i32 %23, ptr %8, align 4
  %24 = load i32, ptr %4, align 4
  %25 = lshr i32 %24, 16
  %26 = and i32 %25, 255
  store i32 %26, ptr %9, align 4
  %27 = load i32, ptr %4, align 4
  %28 = lshr i32 %27, 24
  %29 = and i32 %28, 255
  store i32 %29, ptr %10, align 4
  %30 = load i32, ptr %5, align 4
  %31 = and i32 %30, 255
  store i32 %31, ptr %11, align 4
  %32 = load i32, ptr %5, align 4
  %33 = lshr i32 %32, 8
  %34 = and i32 %33, 255
  store i32 %34, ptr %12, align 4
  %35 = load i32, ptr %5, align 4
  %36 = lshr i32 %35, 16
  %37 = and i32 %36, 255
  store i32 %37, ptr %13, align 4
  %38 = load i32, ptr %5, align 4
  %39 = lshr i32 %38, 24
  %40 = and i32 %39, 255
  store i32 %40, ptr %14, align 4
  %41 = load i32, ptr %7, align 4
  %42 = load i32, ptr %6, align 4
  %43 = sub i32 255, %42
  %44 = mul i32 %41, %43
  %45 = load i32, ptr %11, align 4
  %46 = load i32, ptr %6, align 4
  %47 = mul i32 %45, %46
  %48 = add i32 %44, %47
  %49 = udiv i32 %48, 255
  store i32 %49, ptr %15, align 4
  %50 = load i32, ptr %8, align 4
  %51 = load i32, ptr %6, align 4
  %52 = sub i32 255, %51
  %53 = mul i32 %50, %52
  %54 = load i32, ptr %12, align 4
  %55 = load i32, ptr %6, align 4
  %56 = mul i32 %54, %55
  %57 = add i32 %53, %56
  %58 = udiv i32 %57, 255
  store i32 %58, ptr %16, align 4
  %59 = load i32, ptr %9, align 4
  %60 = load i32, ptr %6, align 4
  %61 = sub i32 255, %60
  %62 = mul i32 %59, %61
  %63 = load i32, ptr %13, align 4
  %64 = load i32, ptr %6, align 4
  %65 = mul i32 %63, %64
  %66 = add i32 %62, %65
  %67 = udiv i32 %66, 255
  store i32 %67, ptr %17, align 4
  %68 = load i32, ptr %10, align 4
  %69 = load i32, ptr %6, align 4
  %70 = sub i32 255, %69
  %71 = mul i32 %68, %70
  %72 = load i32, ptr %14, align 4
  %73 = load i32, ptr %6, align 4
  %74 = mul i32 %72, %73
  %75 = add i32 %71, %74
  %76 = udiv i32 %75, 255
  store i32 %76, ptr %18, align 4
  %77 = load i32, ptr %15, align 4
  %78 = load i32, ptr %16, align 4
  %79 = load i32, ptr %17, align 4
  %80 = load i32, ptr %18, align 4
  %81 = call noundef i32 @_Z6duRGBAiiii(i32 noundef %77, i32 noundef %78, i32 noundef %79, i32 noundef %80)
  ret i32 %81
}

; Function Attrs: mustprogress nounwind uwtable
define linkonce_odr noundef i32 @_Z10duTransColjj(i32 noundef %0, i32 noundef %1) #2 comdat {
  %3 = alloca i32, align 4
  %4 = alloca i32, align 4
  store i32 %0, ptr %3, align 4
  store i32 %1, ptr %4, align 4
  %5 = load i32, ptr %4, align 4
  %6 = shl i32 %5, 24
  %7 = load i32, ptr %3, align 4
  %8 = and i32 %7, 16777215
  %9 = or i32 %6, %8
  ret i32 %9
}

; Function Attrs: mustprogress uwtable
define void @_Z32duDebugDrawTileCacheLayerRegionsP11duDebugDrawRK16dtTileCacheLayerff(ptr noundef %0, ptr noundef nonnull align 8 dereferenceable(48) %1, float noundef %2, float noundef %3) #0 {
  %5 = alloca ptr, align 8
  %6 = alloca ptr, align 8
  %7 = alloca float, align 4
  %8 = alloca float, align 4
  %9 = alloca i32, align 4
  %10 = alloca i32, align 4
  %11 = alloca ptr, align 8
  %12 = alloca ptr, align 8
  %13 = alloca i32, align 4
  %14 = alloca i32, align 4
  %15 = alloca [3 x float], align 4
  %16 = alloca [3 x float], align 4
  %17 = alloca i32, align 4
  %18 = alloca i32, align 4
  %19 = alloca i32, align 4
  %20 = alloca i32, align 4
  %21 = alloca i8, align 1
  %22 = alloca i32, align 4
  %23 = alloca float, align 4
  %24 = alloca float, align 4
  %25 = alloca float, align 4
  store ptr %0, ptr %5, align 8
  store ptr %1, ptr %6, align 8
  store float %2, ptr %7, align 4
  store float %3, ptr %8, align 4
  %26 = load ptr, ptr %6, align 8
  %27 = getelementptr inbounds %struct.dtTileCacheLayer, ptr %26, i32 0, i32 0
  %28 = load ptr, ptr %27, align 8
  %29 = getelementptr inbounds %struct.dtTileCacheLayerHeader, ptr %28, i32 0, i32 9
  %30 = load i8, ptr %29, align 4
  %31 = zext i8 %30 to i32
  store i32 %31, ptr %9, align 4
  %32 = load ptr, ptr %6, align 8
  %33 = getelementptr inbounds %struct.dtTileCacheLayer, ptr %32, i32 0, i32 0
  %34 = load ptr, ptr %33, align 8
  %35 = getelementptr inbounds %struct.dtTileCacheLayerHeader, ptr %34, i32 0, i32 10
  %36 = load i8, ptr %35, align 1
  %37 = zext i8 %36 to i32
  store i32 %37, ptr %10, align 4
  %38 = load ptr, ptr %6, align 8
  %39 = getelementptr inbounds %struct.dtTileCacheLayer, ptr %38, i32 0, i32 0
  %40 = load ptr, ptr %39, align 8
  %41 = getelementptr inbounds %struct.dtTileCacheLayerHeader, ptr %40, i32 0, i32 5
  %42 = getelementptr inbounds [3 x float], ptr %41, i64 0, i64 0
  store ptr %42, ptr %11, align 8
  %43 = load ptr, ptr %6, align 8
  %44 = getelementptr inbounds %struct.dtTileCacheLayer, ptr %43, i32 0, i32 0
  %45 = load ptr, ptr %44, align 8
  %46 = getelementptr inbounds %struct.dtTileCacheLayerHeader, ptr %45, i32 0, i32 6
  %47 = getelementptr inbounds [3 x float], ptr %46, i64 0, i64 0
  store ptr %47, ptr %12, align 8
  %48 = load ptr, ptr %6, align 8
  %49 = getelementptr inbounds %struct.dtTileCacheLayer, ptr %48, i32 0, i32 0
  %50 = load ptr, ptr %49, align 8
  %51 = getelementptr inbounds %struct.dtTileCacheLayerHeader, ptr %50, i32 0, i32 4
  %52 = load i32, ptr %51, align 4
  store i32 %52, ptr %13, align 4
  %53 = load i32, ptr %13, align 4
  %54 = add nsw i32 %53, 1
  %55 = call noundef i32 @_Z10duIntToColii(i32 noundef %54, i32 noundef 255)
  store i32 %55, ptr %14, align 4
  %56 = load ptr, ptr %11, align 8
  %57 = getelementptr inbounds float, ptr %56, i64 0
  %58 = load float, ptr %57, align 4
  %59 = load ptr, ptr %6, align 8
  %60 = getelementptr inbounds %struct.dtTileCacheLayer, ptr %59, i32 0, i32 0
  %61 = load ptr, ptr %60, align 8
  %62 = getelementptr inbounds %struct.dtTileCacheLayerHeader, ptr %61, i32 0, i32 11
  %63 = load i8, ptr %62, align 2
  %64 = zext i8 %63 to i32
  %65 = sitofp i32 %64 to float
  %66 = load float, ptr %7, align 4
  %67 = call float @llvm.fmuladd.f32(float %65, float %66, float %58)
  %68 = getelementptr inbounds [3 x float], ptr %15, i64 0, i64 0
  store float %67, ptr %68, align 4
  %69 = load ptr, ptr %11, align 8
  %70 = getelementptr inbounds float, ptr %69, i64 1
  %71 = load float, ptr %70, align 4
  %72 = getelementptr inbounds [3 x float], ptr %15, i64 0, i64 1
  store float %71, ptr %72, align 4
  %73 = load ptr, ptr %11, align 8
  %74 = getelementptr inbounds float, ptr %73, i64 2
  %75 = load float, ptr %74, align 4
  %76 = load ptr, ptr %6, align 8
  %77 = getelementptr inbounds %struct.dtTileCacheLayer, ptr %76, i32 0, i32 0
  %78 = load ptr, ptr %77, align 8
  %79 = getelementptr inbounds %struct.dtTileCacheLayerHeader, ptr %78, i32 0, i32 13
  %80 = load i8, ptr %79, align 4
  %81 = zext i8 %80 to i32
  %82 = sitofp i32 %81 to float
  %83 = load float, ptr %7, align 4
  %84 = call float @llvm.fmuladd.f32(float %82, float %83, float %75)
  %85 = getelementptr inbounds [3 x float], ptr %15, i64 0, i64 2
  store float %84, ptr %85, align 4
  %86 = load ptr, ptr %11, align 8
  %87 = getelementptr inbounds float, ptr %86, i64 0
  %88 = load float, ptr %87, align 4
  %89 = load ptr, ptr %6, align 8
  %90 = getelementptr inbounds %struct.dtTileCacheLayer, ptr %89, i32 0, i32 0
  %91 = load ptr, ptr %90, align 8
  %92 = getelementptr inbounds %struct.dtTileCacheLayerHeader, ptr %91, i32 0, i32 12
  %93 = load i8, ptr %92, align 1
  %94 = zext i8 %93 to i32
  %95 = add nsw i32 %94, 1
  %96 = sitofp i32 %95 to float
  %97 = load float, ptr %7, align 4
  %98 = call float @llvm.fmuladd.f32(float %96, float %97, float %88)
  %99 = getelementptr inbounds [3 x float], ptr %16, i64 0, i64 0
  store float %98, ptr %99, align 4
  %100 = load ptr, ptr %12, align 8
  %101 = getelementptr inbounds float, ptr %100, i64 1
  %102 = load float, ptr %101, align 4
  %103 = getelementptr inbounds [3 x float], ptr %16, i64 0, i64 1
  store float %102, ptr %103, align 4
  %104 = load ptr, ptr %11, align 8
  %105 = getelementptr inbounds float, ptr %104, i64 2
  %106 = load float, ptr %105, align 4
  %107 = load ptr, ptr %6, align 8
  %108 = getelementptr inbounds %struct.dtTileCacheLayer, ptr %107, i32 0, i32 0
  %109 = load ptr, ptr %108, align 8
  %110 = getelementptr inbounds %struct.dtTileCacheLayerHeader, ptr %109, i32 0, i32 14
  %111 = load i8, ptr %110, align 1
  %112 = zext i8 %111 to i32
  %113 = add nsw i32 %112, 1
  %114 = sitofp i32 %113 to float
  %115 = load float, ptr %7, align 4
  %116 = call float @llvm.fmuladd.f32(float %114, float %115, float %106)
  %117 = getelementptr inbounds [3 x float], ptr %16, i64 0, i64 2
  store float %116, ptr %117, align 4
  %118 = load ptr, ptr %5, align 8
  %119 = getelementptr inbounds [3 x float], ptr %15, i64 0, i64 0
  %120 = load float, ptr %119, align 4
  %121 = getelementptr inbounds [3 x float], ptr %15, i64 0, i64 1
  %122 = load float, ptr %121, align 4
  %123 = getelementptr inbounds [3 x float], ptr %15, i64 0, i64 2
  %124 = load float, ptr %123, align 4
  %125 = getelementptr inbounds [3 x float], ptr %16, i64 0, i64 0
  %126 = load float, ptr %125, align 4
  %127 = getelementptr inbounds [3 x float], ptr %16, i64 0, i64 1
  %128 = load float, ptr %127, align 4
  %129 = getelementptr inbounds [3 x float], ptr %16, i64 0, i64 2
  %130 = load float, ptr %129, align 4
  %131 = load i32, ptr %14, align 4
  %132 = call noundef i32 @_Z10duTransColjj(i32 noundef %131, i32 noundef 128)
  call void @_Z18duDebugDrawBoxWireP11duDebugDrawffffffjf(ptr noundef %118, float noundef %120, float noundef %122, float noundef %124, float noundef %126, float noundef %128, float noundef %130, i32 noundef %132, float noundef 2.000000e+00)
  %133 = load ptr, ptr %5, align 8
  %134 = load ptr, ptr %133, align 8
  %135 = getelementptr inbounds ptr, ptr %134, i64 4
  %136 = load ptr, ptr %135, align 8
  call void %136(ptr noundef nonnull align 8 dereferenceable(8) %133, i32 noundef 3, float noundef 1.000000e+00)
  store i32 0, ptr %17, align 4
  br label %137

137:                                              ; preds = %242, %4
  %138 = load i32, ptr %17, align 4
  %139 = load i32, ptr %10, align 4
  %140 = icmp slt i32 %138, %139
  br i1 %140, label %141, label %245

141:                                              ; preds = %137
  store i32 0, ptr %18, align 4
  br label %142

142:                                              ; preds = %238, %141
  %143 = load i32, ptr %18, align 4
  %144 = load i32, ptr %9, align 4
  %145 = icmp slt i32 %143, %144
  br i1 %145, label %146, label %241

146:                                              ; preds = %142
  %147 = load i32, ptr %18, align 4
  %148 = load i32, ptr %17, align 4
  %149 = load i32, ptr %9, align 4
  %150 = mul nsw i32 %148, %149
  %151 = add nsw i32 %147, %150
  store i32 %151, ptr %19, align 4
  %152 = load ptr, ptr %6, align 8
  %153 = getelementptr inbounds %struct.dtTileCacheLayer, ptr %152, i32 0, i32 2
  %154 = load ptr, ptr %153, align 8
  %155 = load i32, ptr %19, align 4
  %156 = sext i32 %155 to i64
  %157 = getelementptr inbounds i8, ptr %154, i64 %156
  %158 = load i8, ptr %157, align 1
  %159 = zext i8 %158 to i32
  store i32 %159, ptr %20, align 4
  %160 = load i32, ptr %20, align 4
  %161 = icmp eq i32 %160, 255
  br i1 %161, label %162, label %163

162:                                              ; preds = %146
  br label %238

163:                                              ; preds = %146
  %164 = load ptr, ptr %6, align 8
  %165 = getelementptr inbounds %struct.dtTileCacheLayer, ptr %164, i32 0, i32 5
  %166 = load ptr, ptr %165, align 8
  %167 = load i32, ptr %19, align 4
  %168 = sext i32 %167 to i64
  %169 = getelementptr inbounds i8, ptr %166, i64 %168
  %170 = load i8, ptr %169, align 1
  store i8 %170, ptr %21, align 1
  %171 = load i32, ptr %14, align 4
  %172 = load i8, ptr %21, align 1
  %173 = zext i8 %172 to i32
  %174 = call noundef i32 @_Z10duIntToColii(i32 noundef %173, i32 noundef 255)
  %175 = call noundef i32 @_Z9duLerpColjjj(i32 noundef %171, i32 noundef %174, i32 noundef 192)
  store i32 %175, ptr %22, align 4
  %176 = load ptr, ptr %11, align 8
  %177 = getelementptr inbounds float, ptr %176, i64 0
  %178 = load float, ptr %177, align 4
  %179 = load i32, ptr %18, align 4
  %180 = sitofp i32 %179 to float
  %181 = load float, ptr %7, align 4
  %182 = call float @llvm.fmuladd.f32(float %180, float %181, float %178)
  store float %182, ptr %23, align 4
  %183 = load ptr, ptr %11, align 8
  %184 = getelementptr inbounds float, ptr %183, i64 1
  %185 = load float, ptr %184, align 4
  %186 = load i32, ptr %20, align 4
  %187 = add nsw i32 %186, 1
  %188 = sitofp i32 %187 to float
  %189 = load float, ptr %8, align 4
  %190 = call float @llvm.fmuladd.f32(float %188, float %189, float %185)
  store float %190, ptr %24, align 4
  %191 = load ptr, ptr %11, align 8
  %192 = getelementptr inbounds float, ptr %191, i64 2
  %193 = load float, ptr %192, align 4
  %194 = load i32, ptr %17, align 4
  %195 = sitofp i32 %194 to float
  %196 = load float, ptr %7, align 4
  %197 = call float @llvm.fmuladd.f32(float %195, float %196, float %193)
  store float %197, ptr %25, align 4
  %198 = load ptr, ptr %5, align 8
  %199 = load float, ptr %23, align 4
  %200 = load float, ptr %24, align 4
  %201 = load float, ptr %25, align 4
  %202 = load i32, ptr %22, align 4
  %203 = load ptr, ptr %198, align 8
  %204 = getelementptr inbounds ptr, ptr %203, i64 6
  %205 = load ptr, ptr %204, align 8
  call void %205(ptr noundef nonnull align 8 dereferenceable(8) %198, float noundef %199, float noundef %200, float noundef %201, i32 noundef %202)
  %206 = load ptr, ptr %5, align 8
  %207 = load float, ptr %23, align 4
  %208 = load float, ptr %24, align 4
  %209 = load float, ptr %25, align 4
  %210 = load float, ptr %7, align 4
  %211 = fadd float %209, %210
  %212 = load i32, ptr %22, align 4
  %213 = load ptr, ptr %206, align 8
  %214 = getelementptr inbounds ptr, ptr %213, i64 6
  %215 = load ptr, ptr %214, align 8
  call void %215(ptr noundef nonnull align 8 dereferenceable(8) %206, float noundef %207, float noundef %208, float noundef %211, i32 noundef %212)
  %216 = load ptr, ptr %5, align 8
  %217 = load float, ptr %23, align 4
  %218 = load float, ptr %7, align 4
  %219 = fadd float %217, %218
  %220 = load float, ptr %24, align 4
  %221 = load float, ptr %25, align 4
  %222 = load float, ptr %7, align 4
  %223 = fadd float %221, %222
  %224 = load i32, ptr %22, align 4
  %225 = load ptr, ptr %216, align 8
  %226 = getelementptr inbounds ptr, ptr %225, i64 6
  %227 = load ptr, ptr %226, align 8
  call void %227(ptr noundef nonnull align 8 dereferenceable(8) %216, float noundef %219, float noundef %220, float noundef %223, i32 noundef %224)
  %228 = load ptr, ptr %5, align 8
  %229 = load float, ptr %23, align 4
  %230 = load float, ptr %7, align 4
  %231 = fadd float %229, %230
  %232 = load float, ptr %24, align 4
  %233 = load float, ptr %25, align 4
  %234 = load i32, ptr %22, align 4
  %235 = load ptr, ptr %228, align 8
  %236 = getelementptr inbounds ptr, ptr %235, i64 6
  %237 = load ptr, ptr %236, align 8
  call void %237(ptr noundef nonnull align 8 dereferenceable(8) %228, float noundef %231, float noundef %232, float noundef %233, i32 noundef %234)
  br label %238

238:                                              ; preds = %163, %162
  %239 = load i32, ptr %18, align 4
  %240 = add nsw i32 %239, 1
  store i32 %240, ptr %18, align 4
  br label %142, !llvm.loop !32

241:                                              ; preds = %142
  br label %242

242:                                              ; preds = %241
  %243 = load i32, ptr %17, align 4
  %244 = add nsw i32 %243, 1
  store i32 %244, ptr %17, align 4
  br label %137, !llvm.loop !33

245:                                              ; preds = %137
  %246 = load ptr, ptr %5, align 8
  %247 = load ptr, ptr %246, align 8
  %248 = getelementptr inbounds ptr, ptr %247, i64 9
  %249 = load ptr, ptr %248, align 8
  call void %249(ptr noundef nonnull align 8 dereferenceable(8) %246)
  %250 = load ptr, ptr %5, align 8
  %251 = load ptr, ptr %6, align 8
  %252 = load float, ptr %7, align 4
  %253 = load float, ptr %8, align 4
  call void @_ZL25debugDrawTileCachePortalsP11duDebugDrawRK16dtTileCacheLayerff(ptr noundef %250, ptr noundef nonnull align 8 dereferenceable(48) %251, float noundef %252, float noundef %253)
  ret void
}