; Function Attrs: mustprogress uwtable
define void @_Z32duDebugDrawTileCacheLayerRegionsP11duDebugDrawRK16dtTileCacheLayerff(ptr noundef %0, ptr noundef nonnull readonly align 8 captures(none) dereferenceable(48) %1, float noundef %2, float noundef %3) local_unnamed_addr #0 {
  %5 = load ptr, ptr %1, align 8
  %6 = getelementptr inbounds nuw i8, ptr %5, i64 48
  %7 = load i8, ptr %6, align 4
  %8 = getelementptr inbounds nuw i8, ptr %5, i64 49
  %9 = load i8, ptr %8, align 1
  %10 = getelementptr inbounds nuw i8, ptr %5, i64 20
  %11 = getelementptr inbounds nuw i8, ptr %5, i64 16
  %12 = load i32, ptr %11, align 4
  %13 = add nsw i32 %12, 1
  %14 = tail call noundef i32 @_Z10duIntToColii(i32 noundef %13, i32 noundef 255)
  %15 = load float, ptr %10, align 4
  %16 = load ptr, ptr %1, align 8
  %17 = getelementptr inbounds nuw i8, ptr %16, i64 50
  %18 = load i8, ptr %17, align 2
  %19 = uitofp i8 %18 to float
  %20 = tail call float @llvm.fmuladd.f32(float %19, float %2, float %15)
  %21 = getelementptr inbounds nuw i8, ptr %5, i64 24
  %22 = load float, ptr %21, align 4
  %23 = getelementptr inbounds nuw i8, ptr %5, i64 28
  %24 = load float, ptr %23, align 4
  %25 = getelementptr inbounds nuw i8, ptr %16, i64 52
  %26 = load i8, ptr %25, align 4
  %27 = uitofp i8 %26 to float
  %28 = tail call float @llvm.fmuladd.f32(float %27, float %2, float %24)
  %29 = getelementptr inbounds nuw i8, ptr %16, i64 51
  %30 = load i8, ptr %29, align 1
  %31 = zext i8 %30 to i32
  %32 = add nuw nsw i32 %31, 1
  %33 = uitofp nneg i32 %32 to float
  %34 = tail call float @llvm.fmuladd.f32(float %33, float %2, float %15)
  %35 = getelementptr inbounds nuw i8, ptr %5, i64 36
  %36 = load float, ptr %35, align 4
  %37 = getelementptr inbounds nuw i8, ptr %16, i64 53
  %38 = load i8, ptr %37, align 1
  %39 = zext i8 %38 to i32
  %40 = add nuw nsw i32 %39, 1
  %41 = uitofp nneg i32 %40 to float
  %42 = tail call float @llvm.fmuladd.f32(float %41, float %2, float %24)
  %43 = and i32 %14, 16777215
  %44 = or disjoint i32 %43, -2147483648
  tail call void @_Z18duDebugDrawBoxWireP11duDebugDrawffffffjf(ptr noundef %0, float noundef %20, float noundef %22, float noundef %28, float noundef %34, float noundef %36, float noundef %42, i32 noundef %44, float noundef 2.000000e+00)
  %45 = load ptr, ptr %0, align 8
  %46 = getelementptr inbounds nuw i8, ptr %45, i64 32
  %47 = load ptr, ptr %46, align 8
  tail call void %47(ptr noundef nonnull align 8 dereferenceable(8) %0, i32 noundef 3, float noundef 1.000000e+00)
  %.not = icmp eq i8 %9, 0
  br i1 %.not, label %._crit_edge90, label %.preheader.lr.ph

.preheader.lr.ph:                                 ; preds = %4
  %.not91 = icmp eq i8 %7, 0
  %48 = getelementptr inbounds nuw i8, ptr %1, i64 16
  %49 = getelementptr inbounds nuw i8, ptr %1, i64 40
  %50 = and i32 %14, 255
  %51 = lshr i32 %14, 8
  %52 = and i32 %51, 255
  %53 = lshr i32 %14, 16
  %54 = and i32 %53, 255
  %55 = lshr i32 %14, 24
  %56 = mul nuw nsw i32 %50, 63
  %57 = mul nuw nsw i32 %52, 63
  %58 = mul nuw nsw i32 %54, 63
  %59 = mul nuw nsw i32 %55, 63
  br i1 %.not91, label %._crit_edge90, label %.preheader.us.preheader

.preheader.us.preheader:                          ; preds = %.preheader.lr.ph
  %60 = zext i8 %7 to i64
  %wide.trip.count97 = zext i8 %9 to i64
  br label %.preheader.us

.preheader.us:                                    ; preds = %.preheader.us.preheader, %._crit_edge.us
  %indvars.iv94 = phi i64 [ 0, %.preheader.us.preheader ], [ %indvars.iv.next95, %._crit_edge.us ]
  %61 = mul nuw nsw i64 %indvars.iv94, %60
  %62 = trunc nuw nsw i64 %indvars.iv94 to i32
  %63 = uitofp nneg i32 %62 to float
  br label %64

64:                                               ; preds = %.preheader.us, %125
  %indvars.iv = phi i64 [ 0, %.preheader.us ], [ %indvars.iv.next, %125 ]
  %65 = add nuw nsw i64 %indvars.iv, %61
  %66 = load ptr, ptr %48, align 8
  %67 = getelementptr inbounds nuw i8, ptr %66, i64 %65
  %68 = load i8, ptr %67, align 1
  %69 = icmp eq i8 %68, -1
  br i1 %69, label %125, label %70

70:                                               ; preds = %64
  %71 = zext i8 %68 to i32
  %72 = load ptr, ptr %49, align 8
  %73 = getelementptr inbounds nuw i8, ptr %72, i64 %65
  %74 = load i8, ptr %73, align 1
  %75 = zext i8 %74 to i32
  %76 = tail call noundef i32 @_Z10duIntToColii(i32 noundef %75, i32 noundef 255)
  %77 = and i32 %76, 255
  %78 = lshr i32 %76, 8
  %79 = and i32 %78, 255
  %80 = lshr i32 %76, 16
  %81 = and i32 %80, 255
  %82 = lshr i32 %76, 24
  %83 = mul nuw nsw i32 %77, 192
  %84 = add nuw nsw i32 %83, %56
  %.lhs.trunc.us = trunc nuw i32 %84 to i16
  %85 = udiv i16 %.lhs.trunc.us, 255
  %.zext.us = zext nneg i16 %85 to i32
  %86 = mul nuw nsw i32 %79, 192
  %87 = add nuw nsw i32 %86, %57
  %.lhs.trunc82.us = trunc nuw i32 %87 to i16
  %88 = udiv i16 %.lhs.trunc82.us, 255
  %.zext83.us = zext nneg i16 %88 to i32
  %89 = mul nuw nsw i32 %81, 192
  %90 = add nuw nsw i32 %89, %58
  %.lhs.trunc84.us = trunc nuw i32 %90 to i16
  %91 = udiv i16 %.lhs.trunc84.us, 255
  %.zext85.us = zext nneg i16 %91 to i32
  %92 = mul nuw nsw i32 %82, 192
  %93 = add nuw nsw i32 %92, %59
  %.lhs.trunc86.us = trunc nuw i32 %93 to i16
  %94 = udiv i16 %.lhs.trunc86.us, 255
  %.zext87.us = zext nneg i16 %94 to i32
  %95 = shl nuw nsw i32 %.zext83.us, 8
  %96 = shl nuw nsw i32 %.zext85.us, 16
  %97 = shl nuw i32 %.zext87.us, 24
  %98 = or disjoint i32 %97, %.zext.us
  %99 = or i32 %98, %95
  %100 = or i32 %99, %96
  %101 = load float, ptr %10, align 4
  %102 = trunc nuw nsw i64 %indvars.iv to i32
  %103 = uitofp nneg i32 %102 to float
  %104 = tail call float @llvm.fmuladd.f32(float %103, float %2, float %101)
  %105 = load float, ptr %21, align 4
  %106 = add nuw nsw i32 %71, 1
  %107 = uitofp nneg i32 %106 to float
  %108 = tail call float @llvm.fmuladd.f32(float %107, float %3, float %105)
  %109 = load float, ptr %23, align 4
  %110 = tail call float @llvm.fmuladd.f32(float %63, float %2, float %109)
  %111 = load ptr, ptr %0, align 8
  %112 = getelementptr inbounds nuw i8, ptr %111, i64 48
  %113 = load ptr, ptr %112, align 8
  tail call void %113(ptr noundef nonnull align 8 dereferenceable(8) %0, float noundef %104, float noundef %108, float noundef %110, i32 noundef %100)
  %114 = fadd float %2, %110
  %115 = load ptr, ptr %0, align 8
  %116 = getelementptr inbounds nuw i8, ptr %115, i64 48
  %117 = load ptr, ptr %116, align 8
  tail call void %117(ptr noundef nonnull align 8 dereferenceable(8) %0, float noundef %104, float noundef %108, float noundef %114, i32 noundef %100)
  %118 = fadd float %2, %104
  %119 = load ptr, ptr %0, align 8
  %120 = getelementptr inbounds nuw i8, ptr %119, i64 48
  %121 = load ptr, ptr %120, align 8
  tail call void %121(ptr noundef nonnull align 8 dereferenceable(8) %0, float noundef %118, float noundef %108, float noundef %114, i32 noundef %100)
  %122 = load ptr, ptr %0, align 8
  %123 = getelementptr inbounds nuw i8, ptr %122, i64 48
  %124 = load ptr, ptr %123, align 8
  tail call void %124(ptr noundef nonnull align 8 dereferenceable(8) %0, float noundef %118, float noundef %108, float noundef %110, i32 noundef %100)
  br label %125

125:                                              ; preds = %70, %64
  %indvars.iv.next = add nuw nsw i64 %indvars.iv, 1
  %exitcond.not = icmp eq i64 %indvars.iv.next, %60
  br i1 %exitcond.not, label %._crit_edge.us, label %64, !llvm.loop !33

._crit_edge.us:                                   ; preds = %125
  %indvars.iv.next95 = add nuw nsw i64 %indvars.iv94, 1
  %exitcond98.not = icmp eq i64 %indvars.iv.next95, %wide.trip.count97
  br i1 %exitcond98.not, label %._crit_edge90, label %.preheader.us, !llvm.loop !34

._crit_edge90:                                    ; preds = %._crit_edge.us, %.preheader.lr.ph, %4
  %126 = load ptr, ptr %0, align 8
  %127 = getelementptr inbounds nuw i8, ptr %126, i64 72
  %128 = load ptr, ptr %127, align 8
  tail call void %128(ptr noundef nonnull align 8 dereferenceable(8) %0)
  tail call fastcc void @_ZL25debugDrawTileCachePortalsP11duDebugDrawRK16dtTileCacheLayerff(ptr noundef nonnull %0, ptr noundef nonnull align 8 dereferenceable(48) %1, float noundef %2, float noundef %3)
  ret void
}